target datalayout = "e-m:e-p270:32:32-p271:32:32-p272:64:64-i64:64-i128:128-f80:128-n8:16:32:64-S128"
target triple = "x86_64-unknown-linux-gnu"

%"class.net::QuicWallTime" = type { i64 }
%"struct.net::ClientHelloInfo" = type { %"class.net::IPAddress", %"class.net::QuicWallTime", i8, %"class.base::BasicStringPiece", %"class.base::BasicStringPiece", %"class.base::BasicStringPiece", %"class.base::BasicStringPiece", %"class.net::SourceAddressTokens", %"class.std::vector.0" }
%"class.net::IPAddress" = type { %"class.std::vector" }
%"class.std::vector" = type { %"struct.std::_Vector_base" }
%"struct.std::_Vector_base" = type { %"struct.std::_Vector_base<unsigned char, std::allocator<unsigned char>>::_Vector_impl" }
%"struct.std::_Vector_base<unsigned char, std::allocator<unsigned char>>::_Vector_impl" = type { %"struct.std::_Vector_base<unsigned char, std::allocator<unsigned char>>::_Vector_impl_data" }
%"struct.std::_Vector_base<unsigned char, std::allocator<unsigned char>>::_Vector_impl_data" = type { ptr, ptr, ptr }
%"class.base::BasicStringPiece" = type { ptr, i64 }
%"class.net::SourceAddressTokens" = type { %"class.google::protobuf::MessageLite", %"struct.google::protobuf::internal::ArenaStringPtr", ptr, [1 x i32], i32, %"class.google::protobuf::RepeatedPtrField" }
%"class.google::protobuf::MessageLite" = type { ptr }
%"struct.google::protobuf::internal::ArenaStringPtr" = type { ptr }
%"class.google::protobuf::RepeatedPtrField" = type { %"class.google::protobuf::internal::RepeatedPtrFieldBase" }
%"class.google::protobuf::internal::RepeatedPtrFieldBase" = type { ptr, i32, i32, ptr }
%"class.std::vector.0" = type { %"struct.std::_Vector_base.1" }
%"struct.std::_Vector_base.1" = type { %"struct.std::_Vector_base<unsigned int, std::allocator<unsigned int>>::_Vector_impl" }
%"struct.std::_Vector_base<unsigned int, std::allocator<unsigned int>>::_Vector_impl" = type { %"struct.std::_Vector_base<unsigned int, std::allocator<unsigned int>>::_Vector_impl_data" }
%"struct.std::_Vector_base<unsigned int, std::allocator<unsigned int>>::_Vector_impl_data" = type { ptr, ptr, ptr }
%"struct.net::ValidateClientHelloResultCallback::Result" = type { %"class.net::CryptoHandshakeMessage", %"struct.net::ClientHelloInfo", i32, %"class.std::__cxx11::basic_string", %"class.net::CachedNetworkParameters" }
%"class.net::CryptoHandshakeMessage" = type { i32, %"class.std::map", i64, %"class.std::unique_ptr" }
%"class.std::map" = type { %"class.std::_Rb_tree" }
%"class.std::_Rb_tree" = type { %"struct.std::_Rb_tree<unsigned int, std::pair<const unsigned int, std::__cxx11::basic_string<char>>, std::_Select1st<std::pair<const unsigned int, std::__cxx11::basic_string<char>>>, std::less<unsigned int>>::_Rb_tree_impl" }
%"struct.std::_Rb_tree<unsigned int, std::pair<const unsigned int, std::__cxx11::basic_string<char>>, std::_Select1st<std::pair<const unsigned int, std::__cxx11::basic_string<char>>>, std::less<unsigned int>>::_Rb_tree_impl" = type { %"struct.std::_Rb_tree_key_compare", %"struct.std::_Rb_tree_header" }
%"struct.std::_Rb_tree_key_compare" = type { %"struct.std::less" }
%"struct.std::less" = type { i8 }
%"struct.std::_Rb_tree_header" = type { %"struct.std::_Rb_tree_node_base", i64 }
%"struct.std::_Rb_tree_node_base" = type { i32, ptr, ptr, ptr }
%"class.std::unique_ptr" = type { %"struct.std::__uniq_ptr_data" }
%"struct.std::__uniq_ptr_data" = type { %"class.std::__uniq_ptr_impl" }
%"class.std::__uniq_ptr_impl" = type { %"class.std::tuple" }
%"class.std::tuple" = type { %"struct.std::_Tuple_impl" }
%"struct.std::_Tuple_impl" = type { %"struct.std::_Head_base.9" }
%"struct.std::_Head_base.9" = type { ptr }
%"class.std::__cxx11::basic_string" = type { %"struct.std::__cxx11::basic_string<char>::_Alloc_hider", i64, %union.anon }
%"struct.std::__cxx11::basic_string<char>::_Alloc_hider" = type { ptr }
%union.anon = type { i64, [8 x i8] }
%"class.net::CachedNetworkParameters" = type { %"class.google::protobuf::MessageLite", %"struct.google::protobuf::internal::ArenaStringPtr", ptr, [1 x i32], i32, %"struct.google::protobuf::internal::ArenaStringPtr", i32, i32, i64, i32, i32, i64 }

@_ZN3net15ClientHelloInfoD1Ev = dso_local unnamed_addr alias void (ptr), ptr @_ZN3net15ClientHelloInfoD2Ev

; Function Attrs: mustprogress nounwind uwtable
define dso_local void @_ZN3net33ValidateClientHelloResultCallback6ResultD2Ev(ptr noundef nonnull align 8 dereferenceable(368) %this) unnamed_addr #3 align 2 {
entry:
  %this.addr = alloca ptr, align 8
  store ptr %this, ptr %this.addr, align 8
  %this1 = load ptr, ptr %this.addr, align 8
  %cached_network_params = getelementptr inbounds %"struct.net::ValidateClientHelloResultCallback::Result", ptr %this1, i32 0, i32 4
  call void @_ZN3net23CachedNetworkParametersD1Ev(ptr noundef nonnull align 8 dereferenceable(72) %cached_network_params) #14
  %error_details = getelementptr inbounds %"struct.net::ValidateClientHelloResultCallback::Result", ptr %this1, i32 0, i32 3
  call void @_ZNSt7__cxx1112basic_stringIcSt11char_traitsIcESaIcEED1Ev(ptr noundef nonnull align 8 dereferenceable(32) %error_details) #14
  %info = getelementptr inbounds %"struct.net::ValidateClientHelloResultCallback::Result", ptr %this1, i32 0, i32 1
  call void @_ZN3net15ClientHelloInfoD1Ev(ptr noundef nonnull align 8 dereferenceable(184) %info) #14
  %client_hello = getelementptr inbounds %"struct.net::ValidateClientHelloResultCallback::Result", ptr %this1, i32 0, i32 0
  call void @_ZN3net22CryptoHandshakeMessageD1Ev(ptr noundef nonnull align 8 dereferenceable(72) %client_hello) #14
  ret void
}