; Function Attrs: mustprogress nounwind uwtable
define dso_local void @_ZN3net33ValidateClientHelloResultCallback6ResultD2Ev(ptr noundef nonnull align 8 dereferenceable(368) %this) unnamed_addr #4 align 2 personality ptr @__gxx_personality_v0 {
entry:
  %cached_network_params = getelementptr inbounds i8, ptr %this, i64 296
  tail call void @_ZN3net23CachedNetworkParametersD1Ev(ptr noundef nonnull align 8 dereferenceable(72) %cached_network_params) #20
  %error_details = getelementptr inbounds i8, ptr %this, i64 264
  tail call void @_ZNSt7__cxx1112basic_stringIcSt11char_traitsIcESaIcEED1Ev(ptr noundef nonnull align 8 dereferenceable(32) %error_details) #20
  %reject_reasons.i = getelementptr inbounds i8, ptr %this, i64 232
  %0 = load ptr, ptr %reject_reasons.i, align 8
  %tobool.not.i.i.i.i = icmp eq ptr %0, null
  br i1 %tobool.not.i.i.i.i, label %_ZN3net15ClientHelloInfoD2Ev.exit, label %if.then.i.i.i.i

if.then.i.i.i.i:                                  ; preds = %entry
  tail call void @_ZdlPv(ptr noundef nonnull %0) #23
  br label %_ZN3net15ClientHelloInfoD2Ev.exit

_ZN3net15ClientHelloInfoD2Ev.exit:                ; preds = %entry, %if.then.i.i.i.i
  %info = getelementptr inbounds i8, ptr %this, i64 72
  %source_address_tokens.i = getelementptr inbounds i8, ptr %this, i64 176
  tail call void @_ZN3net19SourceAddressTokensD1Ev(ptr noundef nonnull align 8 dereferenceable(56) %source_address_tokens.i) #20
  tail call void @_ZN3net9IPAddressD1Ev(ptr noundef nonnull align 8 dereferenceable(24) %info) #20
  tail call void @_ZN3net22CryptoHandshakeMessageD1Ev(ptr noundef nonnull align 8 dereferenceable(72) %this) #20
  ret void
}